Certificate:
    Data:
        Version: 3 (0x2)
        Serial Number: 1 (0x1)
        Signature Algorithm: sha1WithRSAEncryption
        Issuer: C=EE, CN=libdigidocpp CA
        Validity
            Not Before: Mar 23 23:13:46 2014 GMT
            Not After : Mar 20 23:13:46 2024 GMT
        Subject: C=EE, CN=libdigidocpp CA
        Subject Public Key Info:
            Public Key Algorithm: rsaEncryption
            RSA Public Key: (2048 bit)
                Modulus (2048 bit):
                    00:cf:03:d5:3c:2b:fa:6f:c3:4f:47:75:1d:f6:21:
                    d6:17:ee:f2:53:eb:91:92:59:80:ae:43:62:27:2c:
                    21:42:db:e9:b5:8e:e4:d9:3e:cf:a0:c5:5a:5d:fc:
                    91:c6:b9:38:e8:b1:57:01:85:3e:8d:df:77:0b:a5:
                    46:21:cb:70:47:1c:a6:fd:14:3d:90:cc:93:b7:bb:
                    3d:33:da:68:82:aa:db:44:9a:dc:c8:c2:3b:2b:96:
                    11:67:b5:98:c6:bc:6d:15:9f:3b:88:5d:c1:be:f5:
                    6c:66:50:04:97:92:5d:ef:d8:74:46:52:74:b0:1e:
                    ba:83:e3:1a:df:90:8f:ae:e9:01:64:52:6c:2b:b1:
                    4f:bf:b8:ff:58:b8:dc:ef:20:bb:4a:87:aa:97:ad:
                    b1:13:0e:46:61:49:a1:1a:84:64:94:c1:68:4c:b6:
                    4f:08:50:54:37:f0:c6:d2:af:b5:ed:3d:d9:af:83:
                    7d:d5:94:e3:21:e7:67:68:55:e3:ce:48:62:83:c4:
                    35:7e:fb:04:17:e8:ce:31:a4:48:f8:f0:9c:bc:be:
                    15:af:33:86:ae:3a:22:ac:4a:b8:44:bb:aa:dc:9d:
                    49:7c:13:74:f0:03:d5:b5:de:ca:e7:e0:c0:ba:13:
                    d1:33:48:2d:0a:91:0d:8a:41:ef:66:56:f2:2b:99:
                    67:b1
                Exponent: 65537 (0x10001)
        X509v3 extensions:
            X509v3 Basic Constraints: critical
                CA:TRUE
            X509v3 Key Usage: critical
                Certificate Sign, CRL Sign
            X509v3 Subject Key Identifier: 
                3E:C2:49:19:BB:C8:B0:5F:49:74:A1:6E:B7:17:6D:21:7D:BC:0C:08
            X509v3 Extended Key Usage: 
                TLS Web Client Authentication, TLS Web Server Authentication, Code Signing, E-mail Protection, Time Stamping, OCSP Signing
            Authority Information Access: 
                OCSP - URI:http://www.openxades.org/cgi-bin/ocsp.cgi

    Signature Algorithm: sha1WithRSAEncryption
        8c:5c:2c:e2:3e:a8:3f:85:8a:f1:3d:64:87:7c:52:34:97:88:
        36:e5:85:9d:67:3b:35:77:c8:e8:fc:86:13:23:36:40:12:56:
        e1:55:f7:bf:1c:1e:02:9a:a9:5f:da:13:9b:12:a2:e4:19:98:
        d5:53:db:12:3f:5c:a6:60:7c:d0:aa:ee:da:50:f6:a0:32:b3:
        b3:12:8d:91:c2:6c:28:ee:ec:1b:e2:10:3c:cd:4d:33:fd:e5:
        bd:02:a8:76:94:71:7b:3d:ea:31:bb:04:ef:25:84:e5:5a:4c:
        36:68:01:ec:73:bb:d6:0a:21:98:3c:0c:19:33:9f:5b:27:09:
        17:cb:ae:e6:4d:1d:33:36:47:7c:be:c0:18:11:91:52:6e:fd:
        dc:a5:02:fc:d2:53:da:4b:26:51:1e:e1:b7:cf:44:ff:11:5a:
        35:ae:fe:9e:c4:d6:01:59:7c:10:f3:7b:55:84:1a:d7:80:9c:
        ab:95:88:a5:0c:00:b7:0a:e9:16:97:fb:89:81:db:26:43:a7:
        d1:39:fd:04:6f:9f:22:14:95:c9:ca:47:5a:8c:a7:9e:12:14:
        00:40:3e:b5:f5:ec:bd:74:fd:6e:fa:6d:83:f5:ff:c3:7b:31:
        26:c4:78:17:b9:7f:d1:a6:09:21:c0:50:d2:10:99:77:b0:08:
        f1:0d:74:df
-----BEGIN CERTIFICATE-----
MIIDmzCCAoOgAwIBAgIBATANBgkqhkiG9w0BAQUFADAnMQswCQYDVQQGEwJFRTEY
MBYGA1UEAxMPbGliZGlnaWRvY3BwIENBMB4XDTE0MDMyMzIzMTM0NloXDTI0MDMy
MDIzMTM0NlowJzELMAkGA1UEBhMCRUUxGDAWBgNVBAMTD2xpYmRpZ2lkb2NwcCBD
QTCCASIwDQYJKoZIhvcNAQEBBQADggEPADCCAQoCggEBAM8D1Twr+m/DT0d1HfYh
1hfu8lPrkZJZgK5DYicsIULb6bWO5Nk+z6DFWl38kca5OOixVwGFPo3fdwulRiHL
cEccpv0UPZDMk7e7PTPaaIKq20Sa3MjCOyuWEWe1mMa8bRWfO4hdwb71bGZQBJeS
Xe/YdEZSdLAeuoPjGt+Qj67pAWRSbCuxT7+4/1i43O8gu0qHqpetsRMORmFJoRqE
ZJTBaEy2TwhQVDfwxtKvte092a+DfdWU4yHnZ2hV485IYoPENX77BBfozjGkSPjw
nLy+Fa8zhq46IqxKuES7qtydSXwTdPAD1bXeyufgwLoT0TNILQqRDYpB72ZW8iuZ
Z7ECAwEAAaOB0TCBzjAPBgNVHRMBAf8EBTADAQH/MA4GA1UdDwEB/wQEAwIBBjAd
BgNVHQ4EFgQUPsJJGbvIsF9JdKFutxdtIX28DAgwRQYDVR0lBD4wPAYIKwYBBQUH
AwIGCCsGAQUFBwMBBggrBgEFBQcDAwYIKwYBBQUHAwQGCCsGAQUFBwMIBggrBgEF
BQcDCTBFBggrBgEFBQcBAQQ5MDcwNQYIKwYBBQUHMAGGKWh0dHA6Ly93d3cub3Bl
bnhhZGVzLm9yZy9jZ2ktYmluL29jc3AuY2dpMA0GCSqGSIb3DQEBBQUAA4IBAQCM
XCziPqg/hYrxPWSHfFI0l4g25YWdZzs1d8jo/IYTIzZAElbhVfe/HB4Cmqlf2hOb
EqLkGZjVU9sSP1ymYHzQqu7aUPagMrOzEo2Rwmwo7uwb4hA8zU0z/eW9Aqh2lHF7
PeoxuwTvJYTlWkw2aAHsc7vWCiGYPAwZM59bJwkXy67mTR0zNkd8vsAYEZFSbv3c
pQL80lPaSyZRHuG3z0T/EVo1rv6exNYBWXwQ83tVhBrXgJyrlYilDAC3CukWl/uJ
gdsmQ6fROf0Eb58iFJXJykdajKeeEhQAQD619ey9dP1u+m2D9f/DezEmxHgXuX/R
pgkhwFDSEJl3sAjxDXTf
-----END CERTIFICATE-----
