Certificate:
    Data:
        Version: 3 (0x2)
        Serial Number: 1 (0x1)
        Signature Algorithm: sha512WithRSAEncryption
        Issuer: C=EE, CN=libdigidocpp CA
        Validity
            Not Before: Mar 21 08:52:59 2024 GMT
            Not After : Mar 19 08:52:59 2034 GMT
        Subject: C=EE, CN=libdigidocpp CA
        Subject Public Key Info:
            Public Key Algorithm: rsaEncryption
                Public-Key: (2048 bit)
                Modulus:
                    00:cd:ae:a8:f6:87:84:64:25:f9:b2:ac:56:72:24:
                    49:37:27:e6:65:ad:3c:9d:2e:49:20:d1:d9:d5:b5:
                    e4:5b:a6:7c:b8:b5:17:e3:c8:1e:1d:28:19:4a:9c:
                    03:02:b1:50:58:62:24:a4:80:9f:7b:4c:85:51:67:
                    05:de:d2:27:1f:74:7c:18:58:18:8f:ad:2d:b2:61:
                    83:be:53:2c:e2:a8:73:da:1f:7e:60:a1:4f:fa:4f:
                    67:18:5c:7b:98:97:9d:43:61:b6:39:43:42:e0:a3:
                    9a:45:40:42:3e:4c:4b:25:89:44:65:92:dc:83:5d:
                    3c:5b:8c:de:44:21:bc:31:0a:5c:c4:b2:56:d0:bf:
                    6c:f2:8f:19:9a:6b:fa:7d:ab:62:8b:be:e7:44:f9:
                    94:22:21:05:91:3e:48:30:d5:ae:ed:53:2f:23:f5:
                    f8:55:bb:ad:b7:8a:34:eb:86:08:8b:00:14:47:5e:
                    66:46:a1:01:8e:c4:d3:81:fa:57:be:78:0f:8e:e5:
                    14:31:4d:c6:9e:14:6b:3b:37:42:db:df:43:44:11:
                    67:ba:b0:50:a0:67:a2:4a:e0:1e:4c:99:cb:25:04:
                    fa:7a:f7:a2:9f:71:46:54:de:0e:ee:56:54:7b:bb:
                    be:22:2e:7b:8e:8f:b7:dc:64:98:f5:48:dc:63:1e:
                    71:05
                Exponent: 65537 (0x10001)
        X509v3 extensions:
            X509v3 Basic Constraints: critical
                CA:TRUE
            X509v3 Key Usage: critical
                Certificate Sign, CRL Sign
            X509v3 Extended Key Usage: critical
                OCSP Signing, TLS Web Client Authentication, E-mail Protection, TLS Web Server Authentication
            X509v3 Subject Key Identifier: 
                09:E6:58:FB:4B:F5:DB:25:BB:C3:E2:F6:C6:90:57:F6:E8:95:78:20
            Authority Information Access: 
                OCSP - URI:http://demo.sk.ee/ocsp
    Signature Algorithm: sha512WithRSAEncryption
    Signature Value:
        25:b5:2b:e6:8a:81:f7:fd:c4:5b:28:03:3f:ae:89:23:5a:ad:
        81:84:9a:8d:62:c3:b3:ad:57:f7:1a:cd:20:a3:ea:fb:ee:50:
        81:ae:c0:08:ce:b4:c7:69:88:67:50:c6:05:82:a1:2c:cc:0a:
        c9:0d:39:1a:9e:21:45:b6:0a:96:9f:8b:9a:5a:0d:c8:ab:8c:
        cd:6e:47:89:49:ee:a3:6a:80:ec:22:ec:75:33:79:29:57:2e:
        0a:06:7e:c9:7d:14:f5:63:54:e4:28:78:11:22:00:24:fc:45:
        c4:29:ce:c1:a8:49:5e:79:88:71:f8:d8:98:7a:4b:c3:16:44:
        25:65:d4:a0:09:51:6d:be:17:cb:c3:89:31:e1:91:ee:1f:be:
        ba:9a:5f:6c:f7:a6:36:4a:15:7b:5b:e0:0a:6f:bc:0d:a7:96:
        72:e4:4f:ee:3a:9a:bb:c9:6c:26:d9:0b:eb:84:e7:55:d0:ef:
        61:b6:c4:ba:48:17:50:68:ba:69:54:8f:1d:77:5f:70:ba:31:
        4e:bc:8f:73:7e:62:fa:bc:ac:ac:8d:f1:87:39:94:50:2a:2a:
        51:e4:27:f5:09:08:fb:43:64:69:34:cc:da:4a:4b:b3:91:ec:
        0a:26:bb:af:f8:21:e8:1e:c9:fc:e5:6e:9f:7d:15:1a:e9:76:
        c4:2b:ba:df
-----BEGIN CERTIFICATE-----
MIIDdzCCAl+gAwIBAgIBATANBgkqhkiG9w0BAQ0FADAnMQswCQYDVQQGEwJFRTEY
MBYGA1UEAwwPbGliZGlnaWRvY3BwIENBMB4XDTI0MDMyMTA4NTI1OVoXDTM0MDMx
OTA4NTI1OVowJzELMAkGA1UEBhMCRUUxGDAWBgNVBAMMD2xpYmRpZ2lkb2NwcCBD
QTCCASIwDQYJKoZIhvcNAQEBBQADggEPADCCAQoCggEBAM2uqPaHhGQl+bKsVnIk
STcn5mWtPJ0uSSDR2dW15FumfLi1F+PIHh0oGUqcAwKxUFhiJKSAn3tMhVFnBd7S
Jx90fBhYGI+tLbJhg75TLOKoc9offmChT/pPZxhce5iXnUNhtjlDQuCjmkVAQj5M
SyWJRGWS3INdPFuM3kQhvDEKXMSyVtC/bPKPGZpr+n2rYou+50T5lCIhBZE+SDDV
ru1TLyP1+FW7rbeKNOuGCIsAFEdeZkahAY7E04H6V754D47lFDFNxp4Uazs3Qtvf
Q0QRZ7qwUKBnokrgHkyZyyUE+nr3op9xRlTeDu5WVHu7viIue46Pt9xkmPVI3GMe
cQUCAwEAAaOBrTCBqjAPBgNVHRMBAf8EBTADAQH/MA4GA1UdDwEB/wQEAwIBBjA0
BgNVHSUBAf8EKjAoBggrBgEFBQcDCQYIKwYBBQUHAwIGCCsGAQUFBwMEBggrBgEF
BQcDATAdBgNVHQ4EFgQUCeZY+0v12yW7w+L2xpBX9uiVeCAwMgYIKwYBBQUHAQEE
JjAkMCIGCCsGAQUFBzABhhZodHRwOi8vZGVtby5zay5lZS9vY3NwMA0GCSqGSIb3
DQEBDQUAA4IBAQAltSvmioH3/cRbKAM/rokjWq2BhJqNYsOzrVf3Gs0go+r77lCB
rsAIzrTHaYhnUMYFgqEszArJDTkaniFFtgqWn4uaWg3Iq4zNbkeJSe6jaoDsIux1
M3kpVy4KBn7JfRT1Y1TkKHgRIgAk/EXEKc7BqEleeYhx+NiYekvDFkQlZdSgCVFt
vhfLw4kx4ZHuH766ml9s96Y2ShV7W+AKb7wNp5Zy5E/uOpq7yWwm2QvrhOdV0O9h
tsS6SBdQaLppVI8dd19wujFOvI9zfmL6vKysjfGHOZRQKipR5Cf1CQj7Q2RpNMza
SkuzkewKJruv+CHoHsn85W6ffRUa6XbEK7rf
-----END CERTIFICATE-----
